target datalayout = "e-m:e-p270:32:32-p271:32:32-p272:64:64-i64:64-i128:128-f80:128-n8:16:32:64-S128"
target triple = "x86_64-pc-linux-gnu"

%struct.FunctionCallInfoBaseData = type { ptr, ptr, ptr, i32, i8, i16, [0 x %struct.NullableDatum] }
%struct.NullableDatum = type { i64, i8 }
%struct.GISTENTRY = type { i64, ptr, ptr, i16, i8 }
%struct.PageHeaderData = type { %struct.PageXLogRecPtr, i16, i16, i16, i16, i16, i16, i32, [0 x %struct.ItemIdData] }
%struct.PageXLogRecPtr = type { i32, i32 }
%struct.ItemIdData = type { i32 }
%struct.GISTPageOpaqueData = type { %struct.PageXLogRecPtr, i32, i16, i16 }

; Function Attrs: inlinehint nounwind uwtable
define internal i64 @DatumGetInt64(i64 noundef %0) #2 {
  %2 = alloca i64, align 8
  store i64 %0, ptr %2, align 8
  %3 = load i64, ptr %2, align 8
  ret i64 %3
}

; Function Attrs: inlinehint nounwind uwtable
define internal i64 @BoolGetDatum(i1 noundef zeroext %0) #2 {
  %2 = alloca i8, align 1
  %3 = zext i1 %0 to i8
  store i8 %3, ptr %2, align 1
  %4 = load i8, ptr %2, align 1, !range !4, !noundef !5
  %5 = trunc i8 %4 to i1
  %6 = select i1 %5, i32 1, i32 0
  %7 = sext i32 %6 to i64
  ret i64 %7
}

; Function Attrs: inlinehint nounwind uwtable
define internal void @PageValidateSpecialPointer(ptr noundef %0) #2 {
  %2 = alloca ptr, align 8
  store ptr %0, ptr %2, align 8
  ret void
}

; Function Attrs: inlinehint nounwind uwtable
define internal i64 @DatumGetTSQuerySign(i64 noundef %0) #2 {
  %2 = alloca i64, align 8
  store i64 %0, ptr %2, align 8
  %3 = load i64, ptr %2, align 8
  %4 = call i64 @DatumGetInt64(i64 noundef %3)
  ret i64 %4
}

; Function Attrs: inlinehint nounwind uwtable
define internal zeroext i16 @DatumGetUInt16(i64 noundef %0) #2 {
  %2 = alloca i64, align 8
  store i64 %0, ptr %2, align 8
  %3 = load i64, ptr %2, align 8
  %4 = trunc i64 %3 to i16
  ret i16 %4
}

; Function Attrs: inlinehint nounwind uwtable
define internal ptr @DatumGetTSQuery(i64 noundef %0) #2 {
  %2 = alloca i64, align 8
  store i64 %0, ptr %2, align 8
  %3 = load i64, ptr %2, align 8
  %4 = call ptr @DatumGetPointer(i64 noundef %3)
  ret ptr %4
}

; Function Attrs: inlinehint nounwind uwtable
define internal ptr @DatumGetPointer(i64 noundef %0) #2 {
  %2 = alloca i64, align 8
  store i64 %0, ptr %2, align 8
  %3 = load i64, ptr %2, align 8
  %4 = inttoptr i64 %3 to ptr
  ret ptr %4
}

; Function Attrs: nounwind uwtable
define dso_local i64 @gtsquery_consistent(ptr noundef %0) #0 {
  %2 = alloca ptr, align 8
  %3 = alloca ptr, align 8
  %4 = alloca ptr, align 8
  %5 = alloca i16, align 2
  %6 = alloca ptr, align 8
  %7 = alloca i64, align 8
  %8 = alloca i64, align 8
  %9 = alloca i8, align 1
  store ptr %0, ptr %2, align 8
  call void @llvm.lifetime.start.p0(i64 8, ptr %3) #5
  %10 = load ptr, ptr %2, align 8
  %11 = getelementptr inbounds nuw %struct.FunctionCallInfoBaseData, ptr %10, i32 0, i32 6
  %12 = getelementptr inbounds [0 x %struct.NullableDatum], ptr %11, i64 0, i64 0
  %13 = getelementptr inbounds nuw %struct.NullableDatum, ptr %12, i32 0, i32 0
  %14 = load i64, ptr %13, align 8
  %15 = call ptr @DatumGetPointer(i64 noundef %14)
  store ptr %15, ptr %3, align 8
  call void @llvm.lifetime.start.p0(i64 8, ptr %4) #5
  %16 = load ptr, ptr %2, align 8
  %17 = getelementptr inbounds nuw %struct.FunctionCallInfoBaseData, ptr %16, i32 0, i32 6
  %18 = getelementptr inbounds [0 x %struct.NullableDatum], ptr %17, i64 0, i64 1
  %19 = getelementptr inbounds nuw %struct.NullableDatum, ptr %18, i32 0, i32 0
  %20 = load i64, ptr %19, align 8
  %21 = call ptr @DatumGetTSQuery(i64 noundef %20)
  store ptr %21, ptr %4, align 8
  call void @llvm.lifetime.start.p0(i64 2, ptr %5) #5
  %22 = load ptr, ptr %2, align 8
  %23 = getelementptr inbounds nuw %struct.FunctionCallInfoBaseData, ptr %22, i32 0, i32 6
  %24 = getelementptr inbounds [0 x %struct.NullableDatum], ptr %23, i64 0, i64 2
  %25 = getelementptr inbounds nuw %struct.NullableDatum, ptr %24, i32 0, i32 0
  %26 = load i64, ptr %25, align 8
  %27 = call zeroext i16 @DatumGetUInt16(i64 noundef %26)
  store i16 %27, ptr %5, align 2
  call void @llvm.lifetime.start.p0(i64 8, ptr %6) #5
  %28 = load ptr, ptr %2, align 8
  %29 = getelementptr inbounds nuw %struct.FunctionCallInfoBaseData, ptr %28, i32 0, i32 6
  %30 = getelementptr inbounds [0 x %struct.NullableDatum], ptr %29, i64 0, i64 4
  %31 = getelementptr inbounds nuw %struct.NullableDatum, ptr %30, i32 0, i32 0
  %32 = load i64, ptr %31, align 8
  %33 = call ptr @DatumGetPointer(i64 noundef %32)
  store ptr %33, ptr %6, align 8
  call void @llvm.lifetime.start.p0(i64 8, ptr %7) #5
  %34 = load ptr, ptr %3, align 8
  %35 = getelementptr inbounds nuw %struct.GISTENTRY, ptr %34, i32 0, i32 0
  %36 = load i64, ptr %35, align 8
  %37 = call i64 @DatumGetTSQuerySign(i64 noundef %36)
  store i64 %37, ptr %7, align 8
  call void @llvm.lifetime.start.p0(i64 8, ptr %8) #5
  %38 = load ptr, ptr %4, align 8
  %39 = call i64 @makeTSQuerySign(ptr noundef %38)
  store i64 %39, ptr %8, align 8
  call void @llvm.lifetime.start.p0(i64 1, ptr %9) #5
  %40 = load ptr, ptr %6, align 8
  store i8 1, ptr %40, align 1
  %41 = load i16, ptr %5, align 2
  %42 = zext i16 %41 to i32
  switch i32 %42, label %111 [
    i32 7, label %43
    i32 8, label %77
  ]

43:                                               ; preds = %1
  %44 = load ptr, ptr %3, align 8
  %45 = getelementptr inbounds nuw %struct.GISTENTRY, ptr %44, i32 0, i32 2
  %46 = load ptr, ptr %45, align 8
  call void @PageValidateSpecialPointer(ptr noundef %46)
  %47 = load ptr, ptr %3, align 8
  %48 = getelementptr inbounds nuw %struct.GISTENTRY, ptr %47, i32 0, i32 2
  %49 = load ptr, ptr %48, align 8
  %50 = load ptr, ptr %3, align 8
  %51 = getelementptr inbounds nuw %struct.GISTENTRY, ptr %50, i32 0, i32 2
  %52 = load ptr, ptr %51, align 8
  %53 = getelementptr inbounds nuw %struct.PageHeaderData, ptr %52, i32 0, i32 5
  %54 = load i16, ptr %53, align 4
  %55 = zext i16 %54 to i32
  %56 = sext i32 %55 to i64
  %57 = getelementptr inbounds i8, ptr %49, i64 %56
  %58 = getelementptr inbounds nuw %struct.GISTPageOpaqueData, ptr %57, i32 0, i32 2
  %59 = load i16, ptr %58, align 4
  %60 = zext i16 %59 to i32
  %61 = and i32 %60, 1
  %62 = icmp ne i32 %61, 0
  br i1 %62, label %63, label %70

63:                                               ; preds = %43
  %64 = load i64, ptr %7, align 8
  %65 = load i64, ptr %8, align 8
  %66 = and i64 %64, %65
  %67 = load i64, ptr %8, align 8
  %68 = icmp eq i64 %66, %67
  %69 = zext i1 %68 to i8
  store i8 %69, ptr %9, align 1
  br label %76

70:                                               ; preds = %43
  %71 = load i64, ptr %7, align 8
  %72 = load i64, ptr %8, align 8
  %73 = and i64 %71, %72
  %74 = icmp ne i64 %73, 0
  %75 = zext i1 %74 to i8
  store i8 %75, ptr %9, align 1
  br label %76

76:                                               ; preds = %70, %63
  br label %112

77:                                               ; preds = %1
  %78 = load ptr, ptr %3, align 8
  %79 = getelementptr inbounds nuw %struct.GISTENTRY, ptr %78, i32 0, i32 2
  %80 = load ptr, ptr %79, align 8
  call void @PageValidateSpecialPointer(ptr noundef %80)
  %81 = load ptr, ptr %3, align 8
  %82 = getelementptr inbounds nuw %struct.GISTENTRY, ptr %81, i32 0, i32 2
  %83 = load ptr, ptr %82, align 8
  %84 = load ptr, ptr %3, align 8
  %85 = getelementptr inbounds nuw %struct.GISTENTRY, ptr %84, i32 0, i32 2
  %86 = load ptr, ptr %85, align 8
  %87 = getelementptr inbounds nuw %struct.PageHeaderData, ptr %86, i32 0, i32 5
  %88 = load i16, ptr %87, align 4
  %89 = zext i16 %88 to i32
  %90 = sext i32 %89 to i64
  %91 = getelementptr inbounds i8, ptr %83, i64 %90
  %92 = getelementptr inbounds nuw %struct.GISTPageOpaqueData, ptr %91, i32 0, i32 2
  %93 = load i16, ptr %92, align 4
  %94 = zext i16 %93 to i32
  %95 = and i32 %94, 1
  %96 = icmp ne i32 %95, 0
  br i1 %96, label %97, label %104

97:                                               ; preds = %77
  %98 = load i64, ptr %7, align 8
  %99 = load i64, ptr %8, align 8
  %100 = and i64 %98, %99
  %101 = load i64, ptr %7, align 8
  %102 = icmp eq i64 %100, %101
  %103 = zext i1 %102 to i8
  store i8 %103, ptr %9, align 1
  br label %110

104:                                              ; preds = %77
  %105 = load i64, ptr %7, align 8
  %106 = load i64, ptr %8, align 8
  %107 = and i64 %105, %106
  %108 = icmp ne i64 %107, 0
  %109 = zext i1 %108 to i8
  store i8 %109, ptr %9, align 1
  br label %110

110:                                              ; preds = %104, %97
  br label %112

111:                                              ; preds = %1
  store i8 0, ptr %9, align 1
  br label %112

112:                                              ; preds = %111, %110, %76
  %113 = load i8, ptr %9, align 1, !range !4, !noundef !5
  %114 = trunc i8 %113 to i1
  %115 = call i64 @BoolGetDatum(i1 noundef zeroext %114)
  call void @llvm.lifetime.end.p0(i64 1, ptr %9) #5
  call void @llvm.lifetime.end.p0(i64 8, ptr %8) #5
  call void @llvm.lifetime.end.p0(i64 8, ptr %7) #5
  call void @llvm.lifetime.end.p0(i64 8, ptr %6) #5
  call void @llvm.lifetime.end.p0(i64 2, ptr %5) #5
  call void @llvm.lifetime.end.p0(i64 8, ptr %4) #5
  call void @llvm.lifetime.end.p0(i64 8, ptr %3) #5
  ret i64 %115
}