; Function Attrs: nounwind uwtable
define dso_local range(i64 0, 2) i64 @gtsquery_consistent(ptr noundef readonly captures(none) %0) local_unnamed_addr #0 {
  %2 = getelementptr inbounds nuw i8, ptr %0, i64 32
  %3 = load i64, ptr %2, align 8
  %4 = inttoptr i64 %3 to ptr
  %5 = getelementptr inbounds nuw i8, ptr %0, i64 48
  %6 = load i64, ptr %5, align 8
  %7 = inttoptr i64 %6 to ptr
  %8 = getelementptr inbounds nuw i8, ptr %0, i64 64
  %9 = load i64, ptr %8, align 8
  %10 = trunc i64 %9 to i16
  %11 = getelementptr inbounds nuw i8, ptr %0, i64 96
  %12 = load i64, ptr %11, align 8
  %13 = inttoptr i64 %12 to ptr
  %14 = load i64, ptr %4, align 8
  %15 = tail call i64 @makeTSQuerySign(ptr noundef %7) #7
  store i8 1, ptr %13, align 1
  switch i16 %10, label %46 [
    i16 7, label %16
    i16 8, label %31
  ]

16:                                               ; preds = %1
  %17 = getelementptr inbounds nuw i8, ptr %4, i64 16
  %18 = load ptr, ptr %17, align 8
  %19 = getelementptr inbounds nuw i8, ptr %18, i64 16
  %20 = load i16, ptr %19, align 4
  %21 = zext i16 %20 to i64
  %22 = getelementptr inbounds nuw i8, ptr %18, i64 %21
  %23 = getelementptr inbounds nuw i8, ptr %22, i64 12
  %24 = load i16, ptr %23, align 4
  %25 = and i16 %24, 1
  %.not24 = icmp eq i16 %25, 0
  %26 = and i64 %15, %14
  br i1 %.not24, label %29, label %27

27:                                               ; preds = %16
  %28 = icmp eq i64 %26, %15
  br label %46

29:                                               ; preds = %16
  %30 = icmp ne i64 %26, 0
  br label %46

31:                                               ; preds = %1
  %32 = getelementptr inbounds nuw i8, ptr %4, i64 16
  %33 = load ptr, ptr %32, align 8
  %34 = getelementptr inbounds nuw i8, ptr %33, i64 16
  %35 = load i16, ptr %34, align 4
  %36 = zext i16 %35 to i64
  %37 = getelementptr inbounds nuw i8, ptr %33, i64 %36
  %38 = getelementptr inbounds nuw i8, ptr %37, i64 12
  %39 = load i16, ptr %38, align 4
  %40 = and i16 %39, 1
  %.not = icmp eq i16 %40, 0
  %41 = and i64 %15, %14
  br i1 %.not, label %44, label %42

42:                                               ; preds = %31
  %43 = icmp eq i64 %41, %14
  br label %46

44:                                               ; preds = %31
  %45 = icmp ne i64 %41, 0
  br label %46

46:                                               ; preds = %1, %42, %44, %27, %29
  %.0.shrunk = phi i1 [ %43, %42 ], [ %45, %44 ], [ %28, %27 ], [ %30, %29 ], [ false, %1 ]
  %47 = zext i1 %.0.shrunk to i64
  ret i64 %47
}